; Function Attrs: mustprogress uwtable
define void @cvInsertNodeIntoTree(ptr noundef %0, ptr noundef %1, ptr noundef readnone %2) local_unnamed_addr #0 personality ptr @__gxx_personality_v0 {
  %4 = alloca %"class.std::__cxx11::basic_string", align 8
  %5 = alloca %"class.std::allocator", align 1
  %6 = alloca %"class.std::__cxx11::basic_string", align 8
  %7 = alloca %"class.std::allocator", align 1
  %8 = icmp ne ptr %0, null
  %9 = icmp ne ptr %1, null
  %or.cond = and i1 %8, %9
  br i1 %or.cond, label %23, label %10

10:                                               ; preds = %3
  call void @llvm.lifetime.start.p0(i64 32, ptr nonnull %4) #11
  call void @llvm.lifetime.start.p0(i64 1, ptr nonnull %5) #11
  invoke void @_ZNSt7__cxx1112basic_stringIcSt11char_traitsIcESaIcEEC2EPKcRKS3_(ptr noundef nonnull align 8 dereferenceable(32) %4, ptr noundef nonnull @.str, ptr noundef nonnull align 1 dereferenceable(1) %5)
          to label %11 unwind label %13

11:                                               ; preds = %10
  invoke void @_ZN2cv5errorEiRKNSt7__cxx1112basic_stringIcSt11char_traitsIcESaIcEEEPKcS9_i(i32 noundef -27, ptr noundef nonnull align 8 dereferenceable(32) %4, ptr noundef nonnull @__func__.cvInsertNodeIntoTree, ptr noundef nonnull @.str.1, i32 noundef 3392) #12
          to label %12 unwind label %15

12:                                               ; preds = %11
  unreachable

13:                                               ; preds = %10
  %14 = landingpad { ptr, i32 }
          cleanup
  br label %_ZNSt7__cxx1112basic_stringIcSt11char_traitsIcESaIcEED2Ev.exit

15:                                               ; preds = %11
  %16 = landingpad { ptr, i32 }
          cleanup
  %17 = load ptr, ptr %4, align 8, !tbaa !3
  %18 = getelementptr inbounds nuw i8, ptr %4, i64 16
  %19 = icmp eq ptr %17, %18
  br i1 %19, label %_ZNKSt7__cxx1112basic_stringIcSt11char_traitsIcESaIcEE11_M_is_localEv.exit.thread.i.i, label %_ZNKSt7__cxx1112basic_stringIcSt11char_traitsIcESaIcEE11_M_is_localEv.exit.i.i

_ZNKSt7__cxx1112basic_stringIcSt11char_traitsIcESaIcEE11_M_is_localEv.exit.thread.i.i: ; preds = %15
  %20 = getelementptr inbounds nuw i8, ptr %4, i64 8
  %21 = load i64, ptr %20, align 8, !tbaa !11
  %22 = icmp ult i64 %21, 16
  call void @llvm.assume(i1 %22)
  br label %_ZNSt7__cxx1112basic_stringIcSt11char_traitsIcESaIcEED2Ev.exit

_ZNKSt7__cxx1112basic_stringIcSt11char_traitsIcESaIcEE11_M_is_localEv.exit.i.i: ; preds = %15
  call void @_ZdlPv(ptr noundef %17) #13
  br label %_ZNSt7__cxx1112basic_stringIcSt11char_traitsIcESaIcEED2Ev.exit

_ZNSt7__cxx1112basic_stringIcSt11char_traitsIcESaIcEED2Ev.exit: ; preds = %_ZNKSt7__cxx1112basic_stringIcSt11char_traitsIcESaIcEE11_M_is_localEv.exit.i.i, %_ZNKSt7__cxx1112basic_stringIcSt11char_traitsIcESaIcEE11_M_is_localEv.exit.thread.i.i, %13
  %.pn = phi { ptr, i32 } [ %14, %13 ], [ %16, %_ZNKSt7__cxx1112basic_stringIcSt11char_traitsIcESaIcEE11_M_is_localEv.exit.thread.i.i ], [ %16, %_ZNKSt7__cxx1112basic_stringIcSt11char_traitsIcESaIcEE11_M_is_localEv.exit.i.i ]
  call void @llvm.lifetime.end.p0(i64 1, ptr nonnull %5) #11
  call void @llvm.lifetime.end.p0(i64 32, ptr nonnull %4) #11
  br label %46

23:                                               ; preds = %3
  %.not = icmp eq ptr %1, %2
  %24 = select i1 %.not, ptr null, ptr %1
  %25 = getelementptr inbounds nuw i8, ptr %0, i64 24
  store ptr %24, ptr %25, align 8, !tbaa !212
  %26 = getelementptr inbounds nuw i8, ptr %1, i64 32
  %27 = load ptr, ptr %26, align 8, !tbaa !208
  %28 = getelementptr inbounds nuw i8, ptr %0, i64 16
  store ptr %27, ptr %28, align 8, !tbaa !211
  %.not26 = icmp eq ptr %27, %0
  br i1 %.not26, label %29, label %42

29:                                               ; preds = %23
  call void @llvm.lifetime.start.p0(i64 32, ptr nonnull %6) #11
  call void @llvm.lifetime.start.p0(i64 1, ptr nonnull %7) #11
  invoke void @_ZNSt7__cxx1112basic_stringIcSt11char_traitsIcESaIcEEC2EPKcRKS3_(ptr noundef nonnull align 8 dereferenceable(32) %6, ptr noundef nonnull @.str.47, ptr noundef nonnull align 1 dereferenceable(1) %7)
          to label %30 unwind label %32

30:                                               ; preds = %29
  invoke void @_ZN2cv5errorEiRKNSt7__cxx1112basic_stringIcSt11char_traitsIcESaIcEEEPKcS9_i(i32 noundef -215, ptr noundef nonnull align 8 dereferenceable(32) %6, ptr noundef nonnull @__func__.cvInsertNodeIntoTree, ptr noundef nonnull @.str.1, i32 noundef 3397) #12
          to label %31 unwind label %34

31:                                               ; preds = %30
  unreachable

32:                                               ; preds = %29
  %33 = landingpad { ptr, i32 }
          cleanup
  br label %_ZNSt7__cxx1112basic_stringIcSt11char_traitsIcESaIcEED2Ev.exit33

34:                                               ; preds = %30
  %35 = landingpad { ptr, i32 }
          cleanup
  %36 = load ptr, ptr %6, align 8, !tbaa !3
  %37 = getelementptr inbounds nuw i8, ptr %6, i64 16
  %38 = icmp eq ptr %36, %37
  br i1 %38, label %_ZNKSt7__cxx1112basic_stringIcSt11char_traitsIcESaIcEE11_M_is_localEv.exit.thread.i.i32, label %_ZNKSt7__cxx1112basic_stringIcSt11char_traitsIcESaIcEE11_M_is_localEv.exit.i.i31

_ZNKSt7__cxx1112basic_stringIcSt11char_traitsIcESaIcEE11_M_is_localEv.exit.thread.i.i32: ; preds = %34
  %39 = getelementptr inbounds nuw i8, ptr %6, i64 8
  %40 = load i64, ptr %39, align 8, !tbaa !11
  %41 = icmp ult i64 %40, 16
  call void @llvm.assume(i1 %41)
  br label %_ZNSt7__cxx1112basic_stringIcSt11char_traitsIcESaIcEED2Ev.exit33

_ZNKSt7__cxx1112basic_stringIcSt11char_traitsIcESaIcEE11_M_is_localEv.exit.i.i31: ; preds = %34
  call void @_ZdlPv(ptr noundef %36) #13
  br label %_ZNSt7__cxx1112basic_stringIcSt11char_traitsIcESaIcEED2Ev.exit33

_ZNSt7__cxx1112basic_stringIcSt11char_traitsIcESaIcEED2Ev.exit33: ; preds = %_ZNKSt7__cxx1112basic_stringIcSt11char_traitsIcESaIcEE11_M_is_localEv.exit.i.i31, %_ZNKSt7__cxx1112basic_stringIcSt11char_traitsIcESaIcEE11_M_is_localEv.exit.thread.i.i32, %32
  %.pn27 = phi { ptr, i32 } [ %33, %32 ], [ %35, %_ZNKSt7__cxx1112basic_stringIcSt11char_traitsIcESaIcEE11_M_is_localEv.exit.thread.i.i32 ], [ %35, %_ZNKSt7__cxx1112basic_stringIcSt11char_traitsIcESaIcEE11_M_is_localEv.exit.i.i31 ]
  call void @llvm.lifetime.end.p0(i64 1, ptr nonnull %7) #11
  call void @llvm.lifetime.end.p0(i64 32, ptr nonnull %6) #11
  br label %46

42:                                               ; preds = %23
  %.not30 = icmp eq ptr %27, null
  br i1 %.not30, label %45, label %43

43:                                               ; preds = %42
  %44 = getelementptr inbounds nuw i8, ptr %27, i64 8
  store ptr %0, ptr %44, align 8, !tbaa !218
  br label %45

45:                                               ; preds = %43, %42
  store ptr %0, ptr %26, align 8, !tbaa !208
  ret void

46:                                               ; preds = %_ZNSt7__cxx1112basic_stringIcSt11char_traitsIcESaIcEED2Ev.exit33, %_ZNSt7__cxx1112basic_stringIcSt11char_traitsIcESaIcEED2Ev.exit
  %.pn27.pn = phi { ptr, i32 } [ %.pn27, %_ZNSt7__cxx1112basic_stringIcSt11char_traitsIcESaIcEED2Ev.exit33 ], [ %.pn, %_ZNSt7__cxx1112basic_stringIcSt11char_traitsIcESaIcEED2Ev.exit ]
  resume { ptr, i32 } %.pn27.pn
}